; Function Attrs: mustprogress nounwind uwtable
define dso_local { i16, ptr } @_ZNK4llvm18TargetLoweringBase18getSetCCResultTypeERKNS_10DataLayoutERNS_11LLVMContextENS_3EVTE(ptr noundef nonnull align 8 dereferenceable(408123) %0, ptr noundef nonnull align 8 dereferenceable(512) %1, ptr nocapture nonnull readnone align 8 %2, i16 %3, ptr nocapture readnone %4) unnamed_addr #0 align 2 {
  %6 = load ptr, ptr %0, align 8
  %7 = getelementptr inbounds i8, ptr %6, i64 32
  %8 = load ptr, ptr %7, align 8
  %9 = tail call i16 %8(ptr noundef nonnull align 8 dereferenceable(408123) %0, ptr noundef nonnull align 8 dereferenceable(512) %1, i32 noundef 0) #26
  %.fca.0.insert = insertvalue { i16, ptr } poison, i16 %9, 0
  %.fca.1.insert = insertvalue { i16, ptr } %.fca.0.insert, ptr null, 1
  ret { i16, ptr } %.fca.1.insert
}